target datalayout = "e-m:e-p270:32:32-p271:32:32-p272:64:64-i64:64-i128:128-f80:128-n8:16:32:64-S128"
target triple = "x86_64-pc-linux-gnu"

%"class.arrow::internal::BitBlockCounter" = type { ptr, i64, i64 }
%"class.arrow::internal::OptionalBitBlockCounter" = type { i8, i64, i64, %"class.arrow::internal::BitBlockCounter" }
%"class.std::__shared_ptr" = type { ptr, %"class.std::__shared_count" }
%"class.std::__shared_count" = type { ptr }
%"class.arrow::Buffer" = type { ptr, i8, i8, ptr, i64, i64, i8, %"class.std::shared_ptr", %"class.std::shared_ptr.0" }
%"class.std::shared_ptr" = type { %"class.std::__shared_ptr" }
%"class.std::shared_ptr.0" = type { %"class.std::__shared_ptr.1" }
%"class.std::__shared_ptr.1" = type { ptr, %"class.std::__shared_count" }

@_ZN5arrow4util8internalL14kNonNullFillerE = internal constant i8 0, align 1

; Function Attrs: mustprogress nounwind uwtable
define linkonce_odr noundef ptr @_ZNKSt12__shared_ptrIN5arrow6BufferELN9__gnu_cxx12_Lock_policyE2EE3getEv(ptr noundef nonnull align 8 dereferenceable(16) %0) #0 comdat align 2 {
  %2 = alloca ptr, align 8
  store ptr %0, ptr %2, align 8, !tbaa !32
  %3 = load ptr, ptr %2, align 8
  %4 = getelementptr inbounds nuw %"class.std::__shared_ptr", ptr %3, i32 0, i32 0
  %5 = load ptr, ptr %4, align 8, !tbaa !34
  ret ptr %5
}

; Function Attrs: mustprogress uwtable
define linkonce_odr void @_ZN5arrow8internal15BitBlockCounterC2EPKhll(ptr noundef nonnull align 8 dereferenceable(24) %0, ptr noundef %1, i64 noundef %2, i64 noundef %3) unnamed_addr #5 comdat align 2 {
  %5 = alloca ptr, align 8
  %6 = alloca ptr, align 8
  %7 = alloca i64, align 8
  %8 = alloca i64, align 8
  store ptr %0, ptr %5, align 8, !tbaa !3
  store ptr %1, ptr %6, align 8, !tbaa !24
  store i64 %2, ptr %7, align 8, !tbaa !8
  store i64 %3, ptr %8, align 8, !tbaa !8
  %9 = load ptr, ptr %5, align 8
  %10 = getelementptr inbounds nuw %"class.arrow::internal::BitBlockCounter", ptr %9, i32 0, i32 0
  %11 = load ptr, ptr %6, align 8, !tbaa !24
  %12 = call noundef ptr @_ZN5arrow4util11MakeNonNullIKhEEPT_S4_(ptr noundef %11)
  %13 = load i64, ptr %7, align 8, !tbaa !8
  %14 = sdiv i64 %13, 8
  %15 = getelementptr inbounds i8, ptr %12, i64 %14
  store ptr %15, ptr %10, align 8, !tbaa !12
  %16 = getelementptr inbounds nuw %"class.arrow::internal::BitBlockCounter", ptr %9, i32 0, i32 1
  %17 = load i64, ptr %8, align 8, !tbaa !8
  store i64 %17, ptr %16, align 8, !tbaa !16
  %18 = getelementptr inbounds nuw %"class.arrow::internal::BitBlockCounter", ptr %9, i32 0, i32 2
  %19 = load i64, ptr %7, align 8, !tbaa !8
  %20 = srem i64 %19, 8
  store i64 %20, ptr %18, align 8, !tbaa !15
  ret void
}

; Function Attrs: inlinehint mustprogress nounwind uwtable
define linkonce_odr noundef ptr @_ZN5arrow4util11MakeNonNullIKhEEPT_S4_(ptr noundef %0) #2 comdat {
  %2 = alloca ptr, align 8
  %3 = alloca ptr, align 8
  store ptr %0, ptr %3, align 8, !tbaa !24
  %4 = load ptr, ptr %3, align 8, !tbaa !24
  %5 = icmp ne ptr %4, null
  %6 = xor i1 %5, true
  %7 = xor i1 %6, true
  %8 = zext i1 %7 to i64
  %9 = call i64 @llvm.expect.i64(i64 %8, i64 1)
  %10 = icmp ne i64 %9, 0
  br i1 %10, label %11, label %13

11:                                               ; preds = %1
  %12 = load ptr, ptr %3, align 8, !tbaa !24
  store ptr %12, ptr %2, align 8
  br label %14

13:                                               ; preds = %1
  store ptr @_ZN5arrow4util8internalL14kNonNullFillerE, ptr %2, align 8
  br label %14

14:                                               ; preds = %13, %11
  %15 = load ptr, ptr %2, align 8
  ret ptr %15
}

; Function Attrs: mustprogress nounwind uwtable
define linkonce_odr noundef ptr @_ZNKSt19__shared_ptr_accessIN5arrow6BufferELN9__gnu_cxx12_Lock_policyE2ELb0ELb0EE6_M_getEv(ptr noundef nonnull align 1 dereferenceable(1) %0) #0 comdat align 2 {
  %2 = alloca ptr, align 8
  store ptr %0, ptr %2, align 8, !tbaa !39
  %3 = load ptr, ptr %2, align 8
  %4 = call noundef ptr @_ZNKSt12__shared_ptrIN5arrow6BufferELN9__gnu_cxx12_Lock_policyE2EE3getEv(ptr noundef nonnull align 8 dereferenceable(16) %3) #7
  ret ptr %4
}

; Function Attrs: mustprogress uwtable
define void @_ZN5arrow8internal23OptionalBitBlockCounterC2EPKhll(ptr noundef nonnull align 8 dereferenceable(48) %0, ptr noundef %1, i64 noundef %2, i64 noundef %3) unnamed_addr #5 align 2 {
  %5 = alloca ptr, align 8
  %6 = alloca ptr, align 8
  %7 = alloca i64, align 8
  %8 = alloca i64, align 8
  store ptr %0, ptr %5, align 8, !tbaa !22
  store ptr %1, ptr %6, align 8, !tbaa !24
  store i64 %2, ptr %7, align 8, !tbaa !8
  store i64 %3, ptr %8, align 8, !tbaa !8
  %9 = load ptr, ptr %5, align 8
  %10 = getelementptr inbounds nuw %"class.arrow::internal::OptionalBitBlockCounter", ptr %9, i32 0, i32 0
  %11 = load ptr, ptr %6, align 8, !tbaa !24
  %12 = icmp ne ptr %11, null
  %13 = zext i1 %12 to i8
  store i8 %13, ptr %10, align 8, !tbaa !25
  %14 = getelementptr inbounds nuw %"class.arrow::internal::OptionalBitBlockCounter", ptr %9, i32 0, i32 1
  store i64 0, ptr %14, align 8, !tbaa !28
  %15 = getelementptr inbounds nuw %"class.arrow::internal::OptionalBitBlockCounter", ptr %9, i32 0, i32 2
  %16 = load i64, ptr %8, align 8, !tbaa !8
  store i64 %16, ptr %15, align 8, !tbaa !29
  %17 = getelementptr inbounds nuw %"class.arrow::internal::OptionalBitBlockCounter", ptr %9, i32 0, i32 3
  %18 = load ptr, ptr %6, align 8, !tbaa !24
  %19 = call noundef ptr @_ZN5arrow4util11MakeNonNullIKhEEPT_S4_(ptr noundef %18)
  %20 = load i64, ptr %7, align 8, !tbaa !8
  %21 = load i64, ptr %8, align 8, !tbaa !8
  call void @_ZN5arrow8internal15BitBlockCounterC2EPKhll(ptr noundef nonnull align 8 dereferenceable(24) %17, ptr noundef %19, i64 noundef %20, i64 noundef %21)
  ret void
}

; Function Attrs: mustprogress nounwind uwtable
define linkonce_odr noundef ptr @_ZNK5arrow6Buffer4dataEv(ptr noundef nonnull align 8 dereferenceable(80) %0) #0 comdat align 2 {
  %2 = alloca ptr, align 8
  store ptr %0, ptr %2, align 8, !tbaa !41
  %3 = load ptr, ptr %2, align 8
  %4 = getelementptr inbounds nuw %"class.arrow::Buffer", ptr %3, i32 0, i32 2
  %5 = load i8, ptr %4, align 1, !tbaa !42, !range !49, !noundef !50
  %6 = trunc i8 %5 to i1
  %7 = xor i1 %6, true
  %8 = xor i1 %7, true
  %9 = zext i1 %8 to i64
  %10 = call i64 @llvm.expect.i64(i64 %9, i64 1)
  %11 = icmp ne i64 %10, 0
  br i1 %11, label %12, label %15

12:                                               ; preds = %1
  %13 = getelementptr inbounds nuw %"class.arrow::Buffer", ptr %3, i32 0, i32 3
  %14 = load ptr, ptr %13, align 8, !tbaa !51
  br label %16

15:                                               ; preds = %1
  br label %16

16:                                               ; preds = %15, %12
  %17 = phi ptr [ %14, %12 ], [ null, %15 ]
  ret ptr %17
}

; Function Attrs: mustprogress nounwind uwtable
define linkonce_odr noundef ptr @_ZNKSt19__shared_ptr_accessIN5arrow6BufferELN9__gnu_cxx12_Lock_policyE2ELb0ELb0EEptEv(ptr noundef nonnull align 1 dereferenceable(1) %0) #0 comdat align 2 {
  %2 = alloca ptr, align 8
  store ptr %0, ptr %2, align 8, !tbaa !39
  %3 = load ptr, ptr %2, align 8
  %4 = call noundef ptr @_ZNKSt19__shared_ptr_accessIN5arrow6BufferELN9__gnu_cxx12_Lock_policyE2ELb0ELb0EE6_M_getEv(ptr noundef nonnull align 1 dereferenceable(1) %3) #7
  ret ptr %4
}

; Function Attrs: mustprogress nounwind uwtable
define linkonce_odr noundef zeroext i1 @_ZNKSt12__shared_ptrIN5arrow6BufferELN9__gnu_cxx12_Lock_policyE2EEcvbEv(ptr noundef nonnull align 8 dereferenceable(16) %0) #0 comdat align 2 {
  %2 = alloca ptr, align 8
  store ptr %0, ptr %2, align 8, !tbaa !32
  %3 = load ptr, ptr %2, align 8
  %4 = getelementptr inbounds nuw %"class.std::__shared_ptr", ptr %3, i32 0, i32 0
  %5 = load ptr, ptr %4, align 8, !tbaa !34
  %6 = icmp ne ptr %5, null
  ret i1 %6
}

; Function Attrs: mustprogress uwtable
define void @_ZN5arrow8internal23OptionalBitBlockCounterC2ERKSt10shared_ptrINS_6BufferEEll(ptr noundef nonnull align 8 dereferenceable(48) %0, ptr noundef nonnull align 8 dereferenceable(16) %1, i64 noundef %2, i64 noundef %3) unnamed_addr #5 align 2 {
  %5 = alloca ptr, align 8
  %6 = alloca ptr, align 8
  %7 = alloca i64, align 8
  %8 = alloca i64, align 8
  store ptr %0, ptr %5, align 8, !tbaa !22
  store ptr %1, ptr %6, align 8, !tbaa !30
  store i64 %2, ptr %7, align 8, !tbaa !8
  store i64 %3, ptr %8, align 8, !tbaa !8
  %9 = load ptr, ptr %5, align 8
  %10 = load ptr, ptr %6, align 8, !tbaa !30
  %11 = call noundef zeroext i1 @_ZNKSt12__shared_ptrIN5arrow6BufferELN9__gnu_cxx12_Lock_policyE2EEcvbEv(ptr noundef nonnull align 8 dereferenceable(16) %10) #7
  br i1 %11, label %12, label %16

12:                                               ; preds = %4
  %13 = load ptr, ptr %6, align 8, !tbaa !30
  %14 = call noundef ptr @_ZNKSt19__shared_ptr_accessIN5arrow6BufferELN9__gnu_cxx12_Lock_policyE2ELb0ELb0EEptEv(ptr noundef nonnull align 1 dereferenceable(1) %13) #7
  %15 = call noundef ptr @_ZNK5arrow6Buffer4dataEv(ptr noundef nonnull align 8 dereferenceable(80) %14)
  br label %17

16:                                               ; preds = %4
  br label %17

17:                                               ; preds = %16, %12
  %18 = phi ptr [ %15, %12 ], [ null, %16 ]
  %19 = load i64, ptr %7, align 8, !tbaa !8
  %20 = load i64, ptr %8, align 8, !tbaa !8
  call void @_ZN5arrow8internal23OptionalBitBlockCounterC2EPKhll(ptr noundef nonnull align 8 dereferenceable(48) %9, ptr noundef %18, i64 noundef %19, i64 noundef %20)
  ret void
}