; Function Attrs: mustprogress nofree norecurse nosync nounwind willreturn memory(read, argmem: readwrite, inaccessiblemem: none) uwtable
define void @_ZN5arrow8internal23OptionalBitBlockCounterC2ERKSt10shared_ptrINS_6BufferEEll(ptr noundef nonnull writeonly align 8 captures(none) dereferenceable(48) initializes((0, 1), (8, 48)) %0, ptr noundef nonnull readonly align 8 captures(none) dereferenceable(16) %1, i64 noundef %2, i64 noundef %3) unnamed_addr #5 align 2 {
  %5 = load ptr, ptr %1, align 8, !tbaa !19
  %.not = icmp eq ptr %5, null
  br i1 %.not, label %13, label %6

6:                                                ; preds = %4
  %7 = getelementptr inbounds nuw i8, ptr %5, i64 9
  %8 = load i8, ptr %7, align 1, !tbaa !24, !range !31, !noundef !32
  %9 = trunc nuw i8 %8 to i1
  %10 = getelementptr inbounds nuw i8, ptr %5, i64 16
  %11 = load ptr, ptr %10, align 8
  %12 = select i1 %9, ptr %11, ptr null, !prof !33
  br label %13

13:                                               ; preds = %4, %6
  %14 = phi ptr [ %12, %6 ], [ null, %4 ]
  %15 = icmp ne ptr %14, null
  %16 = zext i1 %15 to i8
  store i8 %16, ptr %0, align 8, !tbaa !13
  %17 = getelementptr inbounds nuw i8, ptr %0, i64 8
  store i64 0, ptr %17, align 8, !tbaa !16
  %18 = getelementptr inbounds nuw i8, ptr %0, i64 16
  store i64 %3, ptr %18, align 8, !tbaa !17
  %19 = getelementptr inbounds nuw i8, ptr %0, i64 24
  %.not.i.i = icmp eq ptr %14, null
  %_ZN5arrow4util8internalL14kNonNullFillerE..i.i = select i1 %.not.i.i, ptr @_ZN5arrow4util8internalL14kNonNullFillerE, ptr %14, !prof !18
  %20 = sdiv i64 %2, 8
  %21 = getelementptr inbounds i8, ptr %_ZN5arrow4util8internalL14kNonNullFillerE..i.i, i64 %20
  store ptr %21, ptr %19, align 8, !tbaa !7
  %22 = getelementptr inbounds nuw i8, ptr %0, i64 32
  store i64 %3, ptr %22, align 8, !tbaa !12
  %23 = getelementptr inbounds nuw i8, ptr %0, i64 40
  %24 = srem i64 %2, 8
  store i64 %24, ptr %23, align 8, !tbaa !11
  ret void
}